target datalayout = "e-m:e-p270:32:32-p271:32:32-p272:64:64-i64:64-i128:128-f80:128-n8:16:32:64-S128"
target triple = "x86_64-pc-linux-gnu"

%"struct.cv::detail::CheckContext" = type { ptr, ptr, i32, i32, ptr, ptr, ptr }
%"class.std::__shared_count" = type { ptr }
%"class.cv::VideoWriter" = type { ptr, %"struct.cv::Ptr.34", %"struct.cv::Ptr.38" }
%"struct.cv::Ptr.34" = type { %"class.std::shared_ptr.35" }
%"class.std::shared_ptr.35" = type { %"class.std::__shared_ptr.36" }
%"class.std::__shared_ptr.36" = type { ptr, %"class.std::__shared_count" }
%"struct.cv::Ptr.38" = type { %"class.std::shared_ptr.39" }
%"class.std::shared_ptr.39" = type { %"class.std::__shared_ptr.40" }
%"class.std::__shared_ptr.40" = type { ptr, %"class.std::__shared_count" }

@_ZZN2cv11VideoWriter3setEidE15__cv_check__830 = internal constant %"struct.cv::detail::CheckContext" { ptr @.str.61, ptr @.str.7, i32 830, i32 2, ptr @.str.47, ptr @.str.48, ptr @.str.49 }, align 8

; Function Attrs: mustprogress nounwind uwtable
define linkonce_odr hidden noundef ptr @_ZNKSt12__shared_ptrIN2cv12IVideoWriterELN9__gnu_cxx12_Lock_policyE2EE3getEv(ptr noundef nonnull align 8 dereferenceable(16) %0) #5 comdat align 2 {
  %2 = alloca ptr, align 8
  store ptr %0, ptr %2, align 8, !tbaa !169
  %3 = load ptr, ptr %2, align 8
  %4 = getelementptr inbounds nuw %"class.std::__shared_ptr.40", ptr %3, i32 0, i32 0
  %5 = load ptr, ptr %4, align 8, !tbaa !171
  ret ptr %5
}

; Function Attrs: mustprogress nounwind uwtable
define linkonce_odr hidden noundef ptr @_ZNK2cv3PtrINS_12IVideoWriterEEptEv(ptr noundef nonnull align 8 dereferenceable(16) %0) #5 comdat align 2 {
  %2 = alloca ptr, align 8
  store ptr %0, ptr %2, align 8, !tbaa !132
  %3 = load ptr, ptr %2, align 8
  %4 = call noundef ptr @_ZNKSt12__shared_ptrIN2cv12IVideoWriterELN9__gnu_cxx12_Lock_policyE2EE3getEv(ptr noundef nonnull align 8 dereferenceable(16) %3) #3
  ret ptr %4
}

; Function Attrs: inlinehint mustprogress nounwind uwtable
define linkonce_odr hidden noundef zeroext i1 @_ZNK2cv3PtrINS_12IVideoWriterEE5emptyEv(ptr noundef nonnull align 8 dereferenceable(16) %0) #7 comdat align 2 {
  %2 = alloca ptr, align 8
  store ptr %0, ptr %2, align 8, !tbaa !132
  %3 = load ptr, ptr %2, align 8
  %4 = call noundef ptr @_ZNKSt12__shared_ptrIN2cv12IVideoWriterELN9__gnu_cxx12_Lock_policyE2EE3getEv(ptr noundef nonnull align 8 dereferenceable(16) %3) #3
  %5 = icmp eq ptr %4, null
  ret i1 %5
}

; Function Attrs: mustprogress uwtable
define noundef zeroext i1 @_ZN2cv11VideoWriter3setEid(ptr noundef nonnull align 8 dereferenceable(40) %0, i32 noundef %1, double noundef %2) unnamed_addr #4 align 2 {
  %4 = alloca i1, align 1
  %5 = alloca ptr, align 8
  %6 = alloca i32, align 4
  %7 = alloca double, align 8
  store ptr %0, ptr %5, align 8, !tbaa !128
  store i32 %1, ptr %6, align 4, !tbaa !39
  store double %2, ptr %7, align 8, !tbaa !119
  %8 = load ptr, ptr %5, align 8
  br label %9

9:                                                ; preds = %3
  %10 = load i32, ptr %6, align 4, !tbaa !39
  %11 = icmp ne i32 %10, 42
  br i1 %11, label %12, label %13

12:                                               ; preds = %9
  br label %15

13:                                               ; preds = %9
  %14 = load i32, ptr %6, align 4, !tbaa !39
  call void @_ZN2cv6detail17check_failed_autoEiiRKNS0_12CheckContextE(i32 noundef %14, i32 noundef 42, ptr noundef nonnull align 8 dereferenceable(48) @_ZZN2cv11VideoWriter3setEidE15__cv_check__830) #23
  unreachable

15:                                               ; preds = %12
  br label %16

16:                                               ; preds = %15
  %17 = getelementptr inbounds nuw %"class.cv::VideoWriter", ptr %8, i32 0, i32 2
  %18 = call noundef zeroext i1 @_ZNK2cv3PtrINS_12IVideoWriterEE5emptyEv(ptr noundef nonnull align 8 dereferenceable(16) %17)
  br i1 %18, label %28, label %19

19:                                               ; preds = %16
  %20 = getelementptr inbounds nuw %"class.cv::VideoWriter", ptr %8, i32 0, i32 2
  %21 = call noundef ptr @_ZNK2cv3PtrINS_12IVideoWriterEEptEv(ptr noundef nonnull align 8 dereferenceable(16) %20) #3
  %22 = load i32, ptr %6, align 4, !tbaa !39
  %23 = load double, ptr %7, align 8, !tbaa !119
  %24 = load ptr, ptr %21, align 8, !tbaa !20
  %25 = getelementptr inbounds ptr, ptr %24, i64 3
  %26 = load ptr, ptr %25, align 8
  %27 = call noundef zeroext i1 %26(ptr noundef nonnull align 8 dereferenceable(8) %21, i32 noundef %22, double noundef %23)
  store i1 %27, ptr %4, align 1
  br label %29

28:                                               ; preds = %16
  store i1 false, ptr %4, align 1
  br label %29

29:                                               ; preds = %28, %19
  %30 = load i1, ptr %4, align 1
  ret i1 %30
}