; Function Attrs: mustprogress uwtable
define noundef zeroext i1 @_ZN2cv11VideoWriter3setEid(ptr noundef nonnull readonly align 8 captures(none) dereferenceable(40) %0, i32 noundef %1, double noundef %2) unnamed_addr #3 align 2 {
  %.not = icmp eq i32 %1, 42
  br i1 %.not, label %4, label %5

4:                                                ; preds = %3
  tail call void @_ZN2cv6detail17check_failed_autoEiiRKNS0_12CheckContextE(i32 noundef 42, i32 noundef 42, ptr noundef nonnull align 8 dereferenceable(48) @_ZZN2cv11VideoWriter3setEidE15__cv_check__830) #29
  unreachable

5:                                                ; preds = %3
  %6 = getelementptr inbounds nuw i8, ptr %0, i64 24
  %7 = load ptr, ptr %6, align 8, !tbaa !289
  %8 = icmp eq ptr %7, null
  br i1 %8, label %14, label %9

9:                                                ; preds = %5
  %10 = load ptr, ptr %7, align 8, !tbaa !10
  %11 = getelementptr inbounds nuw i8, ptr %10, i64 24
  %12 = load ptr, ptr %11, align 8
  %13 = tail call noundef zeroext i1 %12(ptr noundef nonnull align 8 dereferenceable(8) %7, i32 noundef %1, double noundef %2)
  br label %14

14:                                               ; preds = %5, %9
  %.0 = phi i1 [ %13, %9 ], [ false, %5 ]
  ret i1 %.0
}